target datalayout = "e-m:e-p270:32:32-p271:32:32-p272:64:64-i64:64-i128:128-f80:128-n8:16:32:64-S128"
target triple = "x86_64-pc-linux-gnu"

; Function Attrs: mustprogress nounwind uwtable
define dso_local noundef i32 @_ZN4Luau4flipENS_8RelationE(i32 noundef %0) #2 {
  %2 = alloca i32, align 4
  %3 = alloca i32, align 4
  store i32 %0, ptr %3, align 4, !tbaa !50
  %4 = load i32, ptr %3, align 4, !tbaa !50
  switch i32 %4, label %7 [
    i32 3, label %5
    i32 4, label %6
  ]

5:                                                ; preds = %1
  store i32 4, ptr %2, align 4
  br label %9

6:                                                ; preds = %1
  store i32 3, ptr %2, align 4
  br label %9

7:                                                ; preds = %1
  %8 = load i32, ptr %3, align 4, !tbaa !50
  store i32 %8, ptr %2, align 4
  br label %9

9:                                                ; preds = %7, %6, %5
  %10 = load i32, ptr %2, align 4
  ret i32 %10
}