; Function Attrs: mustprogress nofree norecurse nosync nounwind willreturn memory(none) uwtable
define dso_local noundef i32 @_ZN4Luau4flipENS_8RelationE(i32 noundef %0) local_unnamed_addr #4 {
  switch i32 %0, label %3 [
    i32 3, label %4
    i32 4, label %2
  ]

2:                                                ; preds = %1
  br label %4

3:                                                ; preds = %1
  br label %4

4:                                                ; preds = %1, %3, %2
  %.0 = phi i32 [ %0, %3 ], [ 3, %2 ], [ 4, %1 ]
  ret i32 %.0
}